target datalayout = "e-m:e-p270:32:32-p271:32:32-p272:64:64-i64:64-i128:128-f80:128-n8:16:32:64-S128"
target triple = "x86_64-pc-linux-gnu"

%struct.RBasic = type { i64, i64 }
%struct.RArray = type { %struct.RBasic, %union.anon }
%union.anon = type { %struct.anon }
%struct.anon = type { i64, %union.anon.0, ptr }
%union.anon.0 = type { i64 }

; Function Attrs: inlinehint nounwind sspstrong willreturn memory(read) uwtable
define internal i64 @RARRAY_EMBED_LEN(i64 noundef %0) #2 {
  %2 = alloca i64, align 8
  %3 = alloca i64, align 8
  store i64 %0, ptr %2, align 8, !tbaa !7
  call void @llvm.lifetime.start.p0(i64 8, ptr %3) #27
  %4 = load i64, ptr %2, align 8, !tbaa !7
  %5 = inttoptr i64 %4 to ptr
  %6 = getelementptr inbounds nuw %struct.RBasic, ptr %5, i32 0, i32 0
  %7 = load i64, ptr %6, align 8, !tbaa !11
  store i64 %7, ptr %3, align 8, !tbaa !7
  %8 = load i64, ptr %3, align 8, !tbaa !7
  %9 = and i64 %8, 4161536
  store i64 %9, ptr %3, align 8, !tbaa !7
  %10 = load i64, ptr %3, align 8, !tbaa !7
  %11 = lshr i64 %10, 15
  store i64 %11, ptr %3, align 8, !tbaa !7
  %12 = load i64, ptr %3, align 8, !tbaa !7
  call void @llvm.lifetime.end.p0(i64 8, ptr %3) #27
  ret i64 %12
}

; Function Attrs: inlinehint nounwind sspstrong willreturn memory(read) uwtable
define internal zeroext i1 @RB_FL_ANY_RAW(i64 noundef %0, i64 noundef %1) #2 {
  %3 = alloca i64, align 8
  %4 = alloca i64, align 8
  store i64 %0, ptr %3, align 8, !tbaa !7
  store i64 %1, ptr %4, align 8, !tbaa !7
  %5 = load i64, ptr %3, align 8, !tbaa !7
  %6 = load i64, ptr %4, align 8, !tbaa !7
  %7 = call i64 @RB_FL_TEST_RAW(i64 noundef %5, i64 noundef %6) #26
  %8 = icmp ne i64 %7, 0
  ret i1 %8
}

; Function Attrs: inlinehint nounwind sspstrong willreturn memory(read) uwtable
define internal i64 @RB_FL_TEST_RAW(i64 noundef %0, i64 noundef %1) #2 {
  %3 = alloca i64, align 8
  %4 = alloca i64, align 8
  store i64 %0, ptr %3, align 8, !tbaa !7
  store i64 %1, ptr %4, align 8, !tbaa !7
  %5 = load i64, ptr %3, align 8, !tbaa !7
  %6 = inttoptr i64 %5 to ptr
  %7 = getelementptr inbounds nuw %struct.RBasic, ptr %6, i32 0, i32 0
  %8 = load i64, ptr %7, align 8, !tbaa !11
  %9 = load i64, ptr %4, align 8, !tbaa !7
  %10 = and i64 %8, %9
  ret i64 %10
}

; Function Attrs: inlinehint nounwind sspstrong willreturn memory(read) uwtable
define internal i64 @rb_array_len(i64 noundef %0) #2 {
  %2 = alloca i64, align 8
  %3 = alloca i64, align 8
  store i64 %0, ptr %3, align 8, !tbaa !7
  %4 = load i64, ptr %3, align 8, !tbaa !7
  %5 = call zeroext i1 @RB_FL_ANY_RAW(i64 noundef %4, i64 noundef 8192) #26
  br i1 %5, label %6, label %9

6:                                                ; preds = %1
  %7 = load i64, ptr %3, align 8, !tbaa !7
  %8 = call i64 @RARRAY_EMBED_LEN(i64 noundef %7) #26
  store i64 %8, ptr %2, align 8
  br label %15

9:                                                ; preds = %1
  %10 = load i64, ptr %3, align 8, !tbaa !7
  %11 = inttoptr i64 %10 to ptr
  %12 = getelementptr inbounds nuw %struct.RArray, ptr %11, i32 0, i32 1
  %13 = getelementptr inbounds nuw %struct.anon, ptr %12, i32 0, i32 0
  %14 = load i64, ptr %13, align 8, !tbaa !13
  store i64 %14, ptr %2, align 8
  br label %15

15:                                               ; preds = %9, %6
  %16 = load i64, ptr %2, align 8
  ret i64 %16
}

; Function Attrs: inlinehint nounwind sspstrong uwtable
define internal zeroext i1 @ARY_SHARED_ROOT_P(i64 noundef %0) #1 {
  %2 = alloca i64, align 8
  store i64 %0, ptr %2, align 8, !tbaa !7
  %3 = load i64, ptr %2, align 8, !tbaa !7
  %4 = call i64 @RB_FL_TEST_RAW(i64 noundef %3, i64 noundef 16777216) #26
  %5 = icmp ne i64 %4, 0
  ret i1 %5
}

; Function Attrs: nounwind sspstrong uwtable
define internal i64 @ary_embed_capa(i64 noundef %0) #0 {
  %2 = alloca i64, align 8
  %3 = alloca i64, align 8
  store i64 %0, ptr %2, align 8, !tbaa !7
  call void @llvm.lifetime.start.p0(i64 8, ptr %3) #27
  %4 = load i64, ptr %2, align 8, !tbaa !7
  %5 = call i64 @rb_gc_obj_slot_size(i64 noundef %4)
  %6 = sub i64 %5, 16
  store i64 %6, ptr %3, align 8, !tbaa !7
  %7 = load i64, ptr %3, align 8, !tbaa !7
  %8 = udiv i64 %7, 8
  call void @llvm.lifetime.end.p0(i64 8, ptr %3) #27
  ret i64 %8
}

; Function Attrs: inlinehint nounwind sspstrong uwtable
define internal zeroext i1 @ARY_EMBED_P(i64 noundef %0) #1 {
  %2 = alloca i64, align 8
  store i64 %0, ptr %2, align 8, !tbaa !7
  %3 = load i64, ptr %2, align 8, !tbaa !7
  %4 = call i64 @RB_FL_TEST_RAW(i64 noundef %3, i64 noundef 8192) #26
  %5 = icmp ne i64 %4, 0
  ret i1 %5
}

; Function Attrs: nounwind sspstrong uwtable
define internal void @ary_double_capa(i64 noundef %0, i64 noundef %1) #0 {
  %3 = alloca i64, align 8
  %4 = alloca i64, align 8
  %5 = alloca i64, align 8
  store i64 %0, ptr %3, align 8, !tbaa !7
  store i64 %1, ptr %4, align 8, !tbaa !7
  call void @llvm.lifetime.start.p0(i64 8, ptr %5) #27
  %6 = load i64, ptr %3, align 8, !tbaa !7
  %7 = call zeroext i1 @ARY_EMBED_P(i64 noundef %6)
  br i1 %7, label %8, label %11

8:                                                ; preds = %2
  %9 = load i64, ptr %3, align 8, !tbaa !7
  %10 = call i64 @ary_embed_capa(i64 noundef %9)
  br label %25

11:                                               ; preds = %2
  %12 = load i64, ptr %3, align 8, !tbaa !7
  %13 = call zeroext i1 @ARY_SHARED_ROOT_P(i64 noundef %12)
  br i1 %13, label %14, label %17

14:                                               ; preds = %11
  %15 = load i64, ptr %3, align 8, !tbaa !7
  %16 = call i64 @rb_array_len(i64 noundef %15) #26
  br label %23

17:                                               ; preds = %11
  %18 = load i64, ptr %3, align 8, !tbaa !7
  %19 = inttoptr i64 %18 to ptr
  %20 = getelementptr inbounds nuw %struct.RArray, ptr %19, i32 0, i32 1
  %21 = getelementptr inbounds nuw %struct.anon, ptr %20, i32 0, i32 1
  %22 = load i64, ptr %21, align 8, !tbaa !13
  br label %23

23:                                               ; preds = %17, %14
  %24 = phi i64 [ %16, %14 ], [ %22, %17 ]
  br label %25

25:                                               ; preds = %23, %8
  %26 = phi i64 [ %10, %8 ], [ %24, %23 ]
  %27 = sdiv i64 %26, 2
  store i64 %27, ptr %5, align 8, !tbaa !7
  %28 = load i64, ptr %5, align 8, !tbaa !7
  %29 = icmp slt i64 %28, 16
  br i1 %29, label %30, label %31

30:                                               ; preds = %25
  store i64 16, ptr %5, align 8, !tbaa !7
  br label %31

31:                                               ; preds = %30, %25
  %32 = load i64, ptr %5, align 8, !tbaa !7
  %33 = load i64, ptr %4, align 8, !tbaa !7
  %34 = sub i64 1152921504606846975, %33
  %35 = icmp sge i64 %32, %34
  br i1 %35, label %36, label %40

36:                                               ; preds = %31
  %37 = load i64, ptr %4, align 8, !tbaa !7
  %38 = sub i64 1152921504606846975, %37
  %39 = sdiv i64 %38, 2
  store i64 %39, ptr %5, align 8, !tbaa !7
  br label %40

40:                                               ; preds = %36, %31
  %41 = load i64, ptr %4, align 8, !tbaa !7
  %42 = load i64, ptr %5, align 8, !tbaa !7
  %43 = add i64 %42, %41
  store i64 %43, ptr %5, align 8, !tbaa !7
  %44 = load i64, ptr %3, align 8, !tbaa !7
  %45 = load i64, ptr %5, align 8, !tbaa !7
  call void @ary_resize_capa(i64 noundef %44, i64 noundef %45)
  call void @llvm.lifetime.end.p0(i64 8, ptr %5) #27
  ret void
}