; Function Attrs: nounwind sspstrong uwtable
define internal fastcc void @ary_double_capa(i64 noundef %0, i64 noundef %1) unnamed_addr #4 {
  %3 = inttoptr i64 %0 to ptr
  %4 = load i64, ptr %3, align 8, !tbaa !7
  %5 = and i64 %4, 8192
  %.not14 = icmp eq i64 %5, 0
  br i1 %.not14, label %10, label %6

6:                                                ; preds = %2
  %7 = tail call i64 @rb_gc_obj_slot_size(i64 noundef %0) #24
  %8 = add i64 %7, -16
  %9 = lshr i64 %8, 3
  br label %17

10:                                               ; preds = %2
  %11 = and i64 %4, 16777216
  %.not15 = icmp eq i64 %11, 0
  br i1 %.not15, label %14, label %rb_array_len.exit

rb_array_len.exit:                                ; preds = %10
  %12 = getelementptr inbounds nuw i8, ptr %3, i64 16
  %13 = load i64, ptr %12, align 8, !tbaa !12
  br label %17

14:                                               ; preds = %10
  %15 = getelementptr inbounds nuw i8, ptr %3, i64 24
  %16 = load i64, ptr %15, align 8, !tbaa !12
  br label %17

17:                                               ; preds = %rb_array_len.exit, %14, %6
  %18 = phi i64 [ %9, %6 ], [ %13, %rb_array_len.exit ], [ %16, %14 ]
  %19 = sdiv i64 %18, 2
  %spec.store.select = tail call i64 @llvm.smax.i64(i64 %19, i64 16)
  %20 = sub i64 1152921504606846975, %1
  %.not = icmp slt i64 %spec.store.select, %20
  %21 = sdiv i64 %20, 2
  %.0 = select i1 %.not, i64 %spec.store.select, i64 %21
  %22 = add i64 %.0, %1
  tail call fastcc void @ary_resize_capa(i64 noundef %0, i64 noundef %22)
  ret void
}